; Function Attrs: mustprogress uwtable
define noundef zeroext i1 @_ZN3net25ParseURLHostnameToAddressERKN4base16BasicStringPieceINSt7__cxx1112basic_stringIcSt11char_traitsIcESaIcEEEEEPNS_9IPAddressE(ptr noundef nonnull align 8 dereferenceable(16) %0, ptr noundef captures(none) %1) local_unnamed_addr #1 {
  %3 = alloca %"class.base::BasicStringPiece", align 8
  %4 = alloca %"class.base::BasicStringPiece", align 8
  %5 = getelementptr inbounds nuw i8, ptr %0, i64 8
  %6 = load i64, ptr %5, align 8, !tbaa !30
  %7 = icmp ugt i64 %6, 1
  br i1 %7, label %8, label %34

8:                                                ; preds = %2
  %9 = load ptr, ptr %0, align 8, !tbaa !32
  %10 = load i8, ptr %9, align 1, !tbaa !13
  %11 = icmp eq i8 %10, 91
  br i1 %11, label %12, label %34

12:                                               ; preds = %8
  %13 = getelementptr i8, ptr %9, i64 %6
  %14 = getelementptr i8, ptr %13, i64 -1
  %15 = load i8, ptr %14, align 1, !tbaa !13
  %16 = icmp eq i8 %15, 93
  br i1 %16, label %17, label %34

17:                                               ; preds = %12
  call void @llvm.lifetime.start.p0(i64 16, ptr nonnull %3) #21
  call void @llvm.lifetime.start.p0(i64 16, ptr nonnull %4) #21
  call void @llvm.memcpy.p0.p0.i64(ptr noundef nonnull align 8 dereferenceable(16) %4, ptr noundef nonnull align 8 dereferenceable(16) %0, i64 16, i1 false), !tbaa.struct !45
  %18 = add i64 %6, -2
  %19 = call { ptr, i64 } @_ZN4base8internal6substrERKNS_16BasicStringPieceINSt7__cxx1112basic_stringIcSt11char_traitsIcESaIcEEEEEmm(ptr noundef nonnull align 8 dereferenceable(16) %4, i64 noundef 1, i64 noundef %18)
  %20 = extractvalue { ptr, i64 } %19, 0
  store ptr %20, ptr %3, align 8
  %21 = getelementptr inbounds nuw i8, ptr %3, i64 8
  %22 = extractvalue { ptr, i64 } %19, 1
  store i64 %22, ptr %21, align 8
  call void @llvm.lifetime.end.p0(i64 16, ptr nonnull %4) #21
  %23 = call noundef zeroext i1 @_ZN3net9IPAddress19AssignFromIPLiteralERKN4base16BasicStringPieceINSt7__cxx1112basic_stringIcSt11char_traitsIcESaIcEEEEE(ptr noundef nonnull align 8 dereferenceable(24) %1, ptr noundef nonnull align 8 dereferenceable(16) %3)
  br i1 %23, label %24, label %32

24:                                               ; preds = %17
  %25 = getelementptr inbounds nuw i8, ptr %1, i64 8
  %26 = load ptr, ptr %25, align 8, !tbaa !3
  %27 = load ptr, ptr %1, align 8, !tbaa !9
  %28 = ptrtoint ptr %26 to i64
  %29 = ptrtoint ptr %27 to i64
  %30 = sub i64 %28, %29
  %31 = icmp eq i64 %30, 16
  br label %32

32:                                               ; preds = %24, %17
  %33 = phi i1 [ false, %17 ], [ %31, %24 ]
  call void @llvm.lifetime.end.p0(i64 16, ptr nonnull %3) #21
  br label %44

34:                                               ; preds = %12, %8, %2
  %35 = tail call noundef zeroext i1 @_ZN3net9IPAddress19AssignFromIPLiteralERKN4base16BasicStringPieceINSt7__cxx1112basic_stringIcSt11char_traitsIcESaIcEEEEE(ptr noundef nonnull align 8 dereferenceable(24) %1, ptr noundef nonnull align 8 dereferenceable(16) %0)
  br i1 %35, label %36, label %44

36:                                               ; preds = %34
  %37 = getelementptr inbounds nuw i8, ptr %1, i64 8
  %38 = load ptr, ptr %37, align 8, !tbaa !3
  %39 = load ptr, ptr %1, align 8, !tbaa !9
  %40 = ptrtoint ptr %38 to i64
  %41 = ptrtoint ptr %39 to i64
  %42 = sub i64 %40, %41
  %43 = icmp eq i64 %42, 4
  br label %44

44:                                               ; preds = %34, %36, %32
  %.0 = phi i1 [ %33, %32 ], [ false, %34 ], [ %43, %36 ]
  ret i1 %.0
}